target datalayout = "e-m:e-p270:32:32-p271:32:32-p272:64:64-i64:64-i128:128-f80:128-n8:16:32:64-S128"
target triple = "x86_64-pc-linux-gnu"

%struct.AVFormatContext = type { ptr, ptr, ptr, ptr, ptr, i32, i32, ptr, i32, ptr, i32, ptr, ptr, i64, i64, i64, i32, i32, i32, i64, i64, ptr, i32, i32, ptr, i32, i32, i32, i32, ptr, i64, i32, i32, %struct.AVIOInterruptCB, i32, i32, i32, i32, i64, i32, i32, i32, i32, i32, i32, i32, i32, i32, i32, i32, i32, i64, i32, i32, i32, i32, i32, ptr, ptr, ptr, ptr, i32, ptr, ptr, ptr, ptr, i32, ptr, ptr, i64, ptr, ptr, ptr, i64 }
%struct.AVIOInterruptCB = type { ptr, ptr }
%struct.VariantStream = type { i32, i32, i64, ptr, ptr, ptr, ptr, i32, i32, ptr, ptr, ptr, ptr, i32, i32, i32, i32, double, i64, i64, i64, i64, i64, double, i64, i64, i32, i32, i32, i32, i64, double, i64, i64, ptr, ptr, ptr, ptr, ptr, ptr, ptr, ptr, double, [4096 x i8], ptr, ptr, i32, [4097 x i8], [4097 x i8], [33 x i8], [33 x i8], ptr, [128 x i8], i32, i32, i32, i32, ptr, ptr, ptr, ptr, ptr, ptr }

@.str.157 = private unnamed_addr constant [7 x i8] c"%s.tmp\00", align 1

; Function Attrs: nounwind uwtable
define internal i64 @append_single_file(ptr noundef %0, ptr noundef %1) #0 {
  %3 = alloca i64, align 8
  %4 = alloca ptr, align 8
  %5 = alloca ptr, align 8
  %6 = alloca i64, align 8
  %7 = alloca i64, align 8
  %8 = alloca i64, align 8
  %9 = alloca ptr, align 8
  %10 = alloca [16384 x i8], align 16
  %11 = alloca ptr, align 8
  %12 = alloca i32, align 4
  store ptr %0, ptr %4, align 8, !tbaa !4
  store ptr %1, ptr %5, align 8, !tbaa !28
  call void @llvm.lifetime.start.p0(i64 8, ptr %6) #15
  store i64 0, ptr %6, align 8, !tbaa !72
  call void @llvm.lifetime.start.p0(i64 8, ptr %7) #15
  store i64 0, ptr %7, align 8, !tbaa !72
  call void @llvm.lifetime.start.p0(i64 8, ptr %8) #15
  store i64 0, ptr %8, align 8, !tbaa !72
  call void @llvm.lifetime.start.p0(i64 8, ptr %9) #15
  store ptr null, ptr %9, align 8, !tbaa !73
  call void @llvm.lifetime.start.p0(i64 16384, ptr %10) #15
  call void @llvm.lifetime.start.p0(i64 8, ptr %11) #15
  %13 = load ptr, ptr %5, align 8, !tbaa !28
  %14 = getelementptr inbounds nuw %struct.VariantStream, ptr %13, i32 0, i32 11
  %15 = load ptr, ptr %14, align 8, !tbaa !35
  store ptr %15, ptr %11, align 8, !tbaa !4
  %16 = load ptr, ptr %4, align 8, !tbaa !4
  %17 = load ptr, ptr %5, align 8, !tbaa !28
  %18 = getelementptr inbounds nuw %struct.VariantStream, ptr %17, i32 0, i32 5
  %19 = load ptr, ptr %5, align 8, !tbaa !28
  %20 = getelementptr inbounds nuw %struct.VariantStream, ptr %19, i32 0, i32 37
  %21 = load ptr, ptr %20, align 8, !tbaa !165
  %22 = call i32 @hlsenc_io_close(ptr noundef %16, ptr noundef %18, ptr noundef %21)
  %23 = load ptr, ptr %11, align 8, !tbaa !4
  %24 = getelementptr inbounds nuw %struct.AVFormatContext, ptr %23, i32 0, i32 12
  %25 = load ptr, ptr %24, align 8, !tbaa !106
  %26 = call ptr (ptr, ...) @av_asprintf(ptr noundef @.str.157, ptr noundef %25)
  store ptr %26, ptr %9, align 8, !tbaa !73
  %27 = load ptr, ptr %4, align 8, !tbaa !4
  %28 = getelementptr inbounds nuw %struct.AVFormatContext, ptr %27, i32 0, i32 71
  %29 = load ptr, ptr %28, align 8, !tbaa !166
  %30 = load ptr, ptr %4, align 8, !tbaa !4
  %31 = load ptr, ptr %5, align 8, !tbaa !28
  %32 = getelementptr inbounds nuw %struct.VariantStream, ptr %31, i32 0, i32 5
  %33 = load ptr, ptr %9, align 8, !tbaa !73
  %34 = call i32 %29(ptr noundef %30, ptr noundef %32, ptr noundef %33, i32 noundef 1, ptr noundef null)
  %35 = sext i32 %34 to i64
  store i64 %35, ptr %6, align 8, !tbaa !72
  %36 = load i64, ptr %6, align 8, !tbaa !72
  %37 = icmp slt i64 %36, 0
  br i1 %37, label %38, label %41

38:                                               ; preds = %2
  %39 = load ptr, ptr %9, align 8, !tbaa !73
  call void @av_free(ptr noundef %39)
  %40 = load i64, ptr %6, align 8, !tbaa !72
  store i64 %40, ptr %3, align 8
  store i32 1, ptr %12, align 4
  br label %74

41:                                               ; preds = %2
  br label %42

42:                                               ; preds = %63, %41
  %43 = load ptr, ptr %5, align 8, !tbaa !28
  %44 = getelementptr inbounds nuw %struct.VariantStream, ptr %43, i32 0, i32 5
  %45 = load ptr, ptr %44, align 8, !tbaa !102
  %46 = getelementptr inbounds [16384 x i8], ptr %10, i64 0, i64 0
  %47 = call i32 @avio_read(ptr noundef %45, ptr noundef %46, i32 noundef 16384)
  %48 = sext i32 %47 to i64
  store i64 %48, ptr %7, align 8, !tbaa !72
  %49 = load i64, ptr %7, align 8, !tbaa !72
  %50 = icmp sgt i64 %49, 0
  br i1 %50, label %51, label %62

51:                                               ; preds = %42
  %52 = load ptr, ptr %5, align 8, !tbaa !28
  %53 = getelementptr inbounds nuw %struct.VariantStream, ptr %52, i32 0, i32 6
  %54 = load ptr, ptr %53, align 8, !tbaa !167
  %55 = getelementptr inbounds [16384 x i8], ptr %10, i64 0, i64 0
  %56 = load i64, ptr %7, align 8, !tbaa !72
  %57 = trunc i64 %56 to i32
  call void @avio_write(ptr noundef %54, ptr noundef %55, i32 noundef %57)
  %58 = load i64, ptr %7, align 8, !tbaa !72
  %59 = load i64, ptr %8, align 8, !tbaa !72
  %60 = add nsw i64 %59, %58
  store i64 %60, ptr %8, align 8, !tbaa !72
  %61 = load i64, ptr %8, align 8, !tbaa !72
  store i64 %61, ptr %6, align 8, !tbaa !72
  br label %62

62:                                               ; preds = %51, %42
  br label %63

63:                                               ; preds = %62
  %64 = load i64, ptr %7, align 8, !tbaa !72
  %65 = icmp sgt i64 %64, 0
  br i1 %65, label %42, label %66, !llvm.loop !168

66:                                               ; preds = %63
  %67 = load ptr, ptr %4, align 8, !tbaa !4
  %68 = load ptr, ptr %5, align 8, !tbaa !28
  %69 = getelementptr inbounds nuw %struct.VariantStream, ptr %68, i32 0, i32 5
  %70 = load ptr, ptr %9, align 8, !tbaa !73
  %71 = call i32 @hlsenc_io_close(ptr noundef %67, ptr noundef %69, ptr noundef %70)
  %72 = load ptr, ptr %9, align 8, !tbaa !73
  call void @av_free(ptr noundef %72)
  %73 = load i64, ptr %6, align 8, !tbaa !72
  store i64 %73, ptr %3, align 8
  store i32 1, ptr %12, align 4
  br label %74

74:                                               ; preds = %66, %38
  call void @llvm.lifetime.end.p0(i64 8, ptr %11) #15
  call void @llvm.lifetime.end.p0(i64 16384, ptr %10) #15
  call void @llvm.lifetime.end.p0(i64 8, ptr %9) #15
  call void @llvm.lifetime.end.p0(i64 8, ptr %8) #15
  call void @llvm.lifetime.end.p0(i64 8, ptr %7) #15
  call void @llvm.lifetime.end.p0(i64 8, ptr %6) #15
  %75 = load i64, ptr %3, align 8
  ret i64 %75
}