; Function Attrs: nounwind uwtable
define internal fastcc range(i64 -9223372036854775807, -9223372036854775808) i64 @append_single_file(ptr noundef %0, ptr noundef %1) unnamed_addr #0 {
  %3 = alloca [16384 x i8], align 16
  call void @llvm.lifetime.start.p0(i64 16384, ptr nonnull %3) #17
  %4 = getelementptr inbounds nuw i8, ptr %1, i64 72
  %5 = load ptr, ptr %4, align 8, !tbaa !29
  %6 = getelementptr inbounds nuw i8, ptr %1, i64 32
  %7 = getelementptr inbounds nuw i8, ptr %1, i64 248
  %8 = load ptr, ptr %7, align 8, !tbaa !205
  %9 = tail call fastcc i32 @hlsenc_io_close(ptr noundef %0, ptr noundef nonnull %6, ptr noundef %8)
  %10 = getelementptr inbounds nuw i8, ptr %5, i64 88
  %11 = load ptr, ptr %10, align 8, !tbaa !98
  %12 = tail call ptr (ptr, ...) @av_asprintf(ptr noundef nonnull @.str.157, ptr noundef %11) #17
  %13 = getelementptr inbounds nuw i8, ptr %0, i64 448
  %14 = load ptr, ptr %13, align 8, !tbaa !166
  %15 = tail call i32 %14(ptr noundef %0, ptr noundef nonnull %6, ptr noundef %12, i32 noundef 1, ptr noundef null) #17
  %16 = sext i32 %15 to i64
  %17 = icmp slt i32 %15, 0
  br i1 %17, label %22, label %.preheader

.preheader:                                       ; preds = %2
  %18 = load ptr, ptr %6, align 8, !tbaa !94
  %19 = call i32 @avio_read(ptr noundef %18, ptr noundef nonnull %3, i32 noundef 16384) #17
  %20 = icmp sgt i32 %19, 0
  br i1 %20, label %.lr.ph, label %._crit_edge

.lr.ph:                                           ; preds = %.preheader
  %21 = getelementptr inbounds nuw i8, ptr %1, i64 40
  br label %23

22:                                               ; preds = %2
  tail call void @av_free(ptr noundef %12) #17
  br label %32

23:                                               ; preds = %.lr.ph, %23
  %24 = phi i32 [ %19, %.lr.ph ], [ %29, %23 ]
  %.02534 = phi i64 [ 0, %.lr.ph ], [ %27, %23 ]
  %25 = zext nneg i32 %24 to i64
  %26 = load ptr, ptr %21, align 8, !tbaa !206
  call void @avio_write(ptr noundef %26, ptr noundef nonnull %3, i32 noundef %24) #17
  %27 = add nuw nsw i64 %.02534, %25
  %28 = load ptr, ptr %6, align 8, !tbaa !94
  %29 = call i32 @avio_read(ptr noundef %28, ptr noundef nonnull %3, i32 noundef 16384) #17
  %30 = icmp sgt i32 %29, 0
  br i1 %30, label %23, label %._crit_edge, !llvm.loop !207

._crit_edge:                                      ; preds = %23, %.preheader
  %.026.lcssa = phi i64 [ %16, %.preheader ], [ %27, %23 ]
  %31 = call fastcc i32 @hlsenc_io_close(ptr noundef nonnull %0, ptr noundef nonnull %6, ptr noundef %12)
  call void @av_free(ptr noundef %12) #17
  br label %32

32:                                               ; preds = %._crit_edge, %22
  %.0 = phi i64 [ %16, %22 ], [ %.026.lcssa, %._crit_edge ]
  call void @llvm.lifetime.end.p0(i64 16384, ptr nonnull %3) #17
  ret i64 %.0
}